target datalayout = "e-m:e-p270:32:32-p271:32:32-p272:64:64-i64:64-i128:128-f80:128-n8:16:32:64-S128"
target triple = "x86_64-pc-linux-gnu"

%class.TypeOopPtr = type { %class.TypePtr.base, ptr, ptr, ptr, i8, i8, i8, i8, i32 }
%class.TypePtr.base = type <{ %class.Type.base, [4 x i8], ptr, i32, i32, i32 }>
%class.Type.base = type <{ ptr, ptr, i32 }>
%class.TypePtr = type <{ %class.Type.base, [4 x i8], ptr, i32, i32, i32, [4 x i8] }>

; Function Attrs: mustprogress nounwind uwtable
define linkonce_odr hidden noundef ptr @_ZNK10TypeOopPtr9const_oopEv(ptr noundef nonnull align 8 dereferenceable(80) %0) #1 comdat align 2 {
  %2 = alloca ptr, align 8
  store ptr %0, ptr %2, align 8
  %3 = load ptr, ptr %2, align 8
  %4 = getelementptr inbounds %class.TypeOopPtr, ptr %3, i32 0, i32 1
  %5 = load ptr, ptr %4, align 8
  ret ptr %5
}

; Function Attrs: mustprogress nounwind uwtable
define hidden noundef ptr @_ZNK11TypeInstPtr19cast_to_instance_idEi(ptr noundef nonnull align 8 dereferenceable(80) %0, i32 noundef %1) unnamed_addr #1 align 2 {
  %3 = alloca ptr, align 8
  %4 = alloca ptr, align 8
  %5 = alloca i32, align 4
  store ptr %0, ptr %4, align 8
  store i32 %1, ptr %5, align 4
  %6 = load ptr, ptr %4, align 8
  %7 = load i32, ptr %5, align 4
  %8 = getelementptr inbounds %class.TypeOopPtr, ptr %6, i32 0, i32 8
  %9 = load i32, ptr %8, align 4
  %10 = icmp eq i32 %7, %9
  br i1 %10, label %11, label %12

11:                                               ; preds = %2
  store ptr %6, ptr %3, align 8
  br label %33

12:                                               ; preds = %2
  %13 = getelementptr inbounds %class.TypePtr, ptr %6, i32 0, i32 5
  %14 = load i32, ptr %13, align 8
  %15 = load ptr, ptr %6, align 8
  %16 = getelementptr inbounds ptr, ptr %15, i64 29
  %17 = load ptr, ptr %16, align 8
  %18 = call noundef ptr %17(ptr noundef nonnull align 8 dereferenceable(80) %6)
  %19 = getelementptr inbounds %class.TypeOopPtr, ptr %6, i32 0, i32 3
  %20 = load ptr, ptr %19, align 8
  %21 = getelementptr inbounds %class.TypeOopPtr, ptr %6, i32 0, i32 4
  %22 = load i8, ptr %21, align 8
  %23 = trunc i8 %22 to i1
  %24 = call noundef ptr @_ZNK10TypeOopPtr9const_oopEv(ptr noundef nonnull align 8 dereferenceable(80) %6)
  %25 = getelementptr inbounds %class.TypePtr, ptr %6, i32 0, i32 4
  %26 = load i32, ptr %25, align 4
  %27 = load i32, ptr %5, align 4
  %28 = getelementptr inbounds %class.TypePtr, ptr %6, i32 0, i32 2
  %29 = load ptr, ptr %28, align 8
  %30 = getelementptr inbounds %class.TypePtr, ptr %6, i32 0, i32 3
  %31 = load i32, ptr %30, align 8
  %32 = call noundef ptr @_ZN11TypeInstPtr4makeEN7TypePtr3PTREP7ciKlassPK14TypeInterfacesbP8ciObjectiiPKS0_i(i32 noundef %14, ptr noundef %18, ptr noundef %20, i1 noundef zeroext %23, ptr noundef %24, i32 noundef %26, i32 noundef %27, ptr noundef %29, i32 noundef %31)
  store ptr %32, ptr %3, align 8
  br label %33

33:                                               ; preds = %12, %11
  %34 = load ptr, ptr %3, align 8
  ret ptr %34
}