; Function Attrs: mustprogress nounwind uwtable
define hidden noundef ptr @_ZNK11TypeInstPtr19cast_to_instance_idEi(ptr noundef nonnull align 8 dereferenceable(80) %0, i32 noundef %1) unnamed_addr #0 align 2 {
  %3 = getelementptr inbounds i8, ptr %0, i64 76
  %4 = load i32, ptr %3, align 4
  %5 = icmp eq i32 %4, %1
  br i1 %5, label %27, label %6

6:                                                ; preds = %2
  %7 = getelementptr inbounds i8, ptr %0, i64 40
  %8 = load i32, ptr %7, align 8
  %9 = load ptr, ptr %0, align 8
  %10 = getelementptr inbounds i8, ptr %9, i64 232
  %11 = load ptr, ptr %10, align 8
  %12 = tail call noundef ptr %11(ptr noundef nonnull align 8 dereferenceable(80) %0) #17
  %13 = getelementptr inbounds i8, ptr %0, i64 64
  %14 = load ptr, ptr %13, align 8
  %15 = getelementptr inbounds i8, ptr %0, i64 72
  %16 = load i8, ptr %15, align 8
  %17 = trunc i8 %16 to i1
  %18 = getelementptr inbounds i8, ptr %0, i64 48
  %19 = load ptr, ptr %18, align 8
  %20 = getelementptr inbounds i8, ptr %0, i64 36
  %21 = load i32, ptr %20, align 4
  %22 = getelementptr inbounds i8, ptr %0, i64 24
  %23 = load ptr, ptr %22, align 8
  %24 = getelementptr inbounds i8, ptr %0, i64 32
  %25 = load i32, ptr %24, align 8
  %26 = tail call noundef ptr @_ZN11TypeInstPtr4makeEN7TypePtr3PTREP7ciKlassPK14TypeInterfacesbP8ciObjectiiPKS0_i(i32 noundef %8, ptr noundef %12, ptr noundef %14, i1 noundef zeroext %17, ptr noundef %19, i32 noundef %21, i32 noundef %1, ptr noundef %23, i32 noundef %25)
  br label %27

27:                                               ; preds = %2, %6
  %.0 = phi ptr [ %26, %6 ], [ %0, %2 ]
  ret ptr %.0
}